target datalayout = "e-m:e-p270:32:32-p271:32:32-p272:64:64-i64:64-i128:128-f80:128-n8:16:32:64-S128"
target triple = "x86_64-pc-linux-gnu"

@.str.12 = private unnamed_addr constant [2 x i8] c"\0A\00", align 1
@.str.13 = private unnamed_addr constant [40 x i8] c"    write_simplec [options] [filename]\0A\00", align 1
@.str.14 = private unnamed_addr constant [82 x i8] c"Write simple C code for simulating the design. The C code written can be used to\0A\00", align 1
@.str.15 = private unnamed_addr constant [79 x i8] c"simulate the design in a C environment, but the purpose of this command is to\0A\00", align 1
@.str.16 = private unnamed_addr constant [65 x i8] c"generate code that works well with C-based formal verification.\0A\00", align 1
@.str.17 = private unnamed_addr constant [14 x i8] c"    -verbose\0A\00", align 1
@.str.18 = private unnamed_addr constant [72 x i8] c"        this will print the recursive walk used to export the modules.\0A\00", align 1
@.str.19 = private unnamed_addr constant [27 x i8] c"    -i8, -i16, -i32, -i64\0A\00", align 1
@.str.20 = private unnamed_addr constant [73 x i8] c"        set the maximum integer bit width to use in the generated code.\0A\00", align 1
@.str.21 = private unnamed_addr constant [36 x i8] c"THIS COMMAND IS UNDER CONSTRUCTION\0A\00", align 1

; Function Attrs: mustprogress uwtable
define internal void @_ZN12_GLOBAL__N_114SimplecBackend4helpEv(ptr noundef nonnull align 8 dereferenceable(136) %0) unnamed_addr #5 align 2 {
  %2 = alloca ptr, align 8
  store ptr %0, ptr %2, align 8
  call void (ptr, ...) @_ZN5Yosys3logEPKcz(ptr noundef @.str.12)
  call void (ptr, ...) @_ZN5Yosys3logEPKcz(ptr noundef @.str.13)
  call void (ptr, ...) @_ZN5Yosys3logEPKcz(ptr noundef @.str.12)
  call void (ptr, ...) @_ZN5Yosys3logEPKcz(ptr noundef @.str.14)
  call void (ptr, ...) @_ZN5Yosys3logEPKcz(ptr noundef @.str.15)
  call void (ptr, ...) @_ZN5Yosys3logEPKcz(ptr noundef @.str.16)
  call void (ptr, ...) @_ZN5Yosys3logEPKcz(ptr noundef @.str.12)
  call void (ptr, ...) @_ZN5Yosys3logEPKcz(ptr noundef @.str.17)
  call void (ptr, ...) @_ZN5Yosys3logEPKcz(ptr noundef @.str.18)
  call void (ptr, ...) @_ZN5Yosys3logEPKcz(ptr noundef @.str.12)
  call void (ptr, ...) @_ZN5Yosys3logEPKcz(ptr noundef @.str.19)
  call void (ptr, ...) @_ZN5Yosys3logEPKcz(ptr noundef @.str.20)
  call void (ptr, ...) @_ZN5Yosys3logEPKcz(ptr noundef @.str.12)
  call void (ptr, ...) @_ZN5Yosys3logEPKcz(ptr noundef @.str.21)
  call void (ptr, ...) @_ZN5Yosys3logEPKcz(ptr noundef @.str.12)
  ret void
}